; ModuleID = '22/170.c'
source_filename = "22/170.c"
target datalayout = "e-m:e-p270:32:32-p271:32:32-p272:64:64-i64:64-f80:128-n8:16:32:64-S128"
target triple = "x86_64-pc-linux-gnu"

@.str = private unnamed_addr constant [3 x i8] c"No\00", align 1
@.str.1 = private unnamed_addr constant [3 x i8] c"%d\00", align 1

; Function Attrs: noinline nounwind uwtable
define dso_local void @main() #0 {
  %1 = alloca [300 x i8], align 16
  %2 = alloca [200 x i32], align 16
  %3 = alloca i32, align 4
  %4 = alloca i32, align 4
  %5 = alloca i32, align 4
  %6 = alloca i32, align 4
  %7 = bitcast [200 x i32]* %2 to i8*
  call void @llvm.memset.p0i8.i64(i8* align 16 %7, i8 0, i64 800, i1 false)
  store i32 0, i32* %3, align 4
  store i32 0, i32* %4, align 4
  %8 = getelementptr inbounds [300 x i8], [300 x i8]* %1, i64 0, i64 0
  %9 = call i32 (i8*, ...) bitcast (i32 (...)* @gets to i32 (i8*, ...)*)(i8* %8)
  br label %10

10:                                               ; preds = %43, %0
  %11 = load i32, i32* %4, align 4
  %12 = sext i32 %11 to i64
  %13 = getelementptr inbounds [300 x i8], [300 x i8]* %1, i64 0, i64 %12
  %14 = load i8, i8* %13, align 1
  %15 = sext i8 %14 to i32
  %16 = icmp ne i32 %15, 0
  br i1 %16, label %17, label %46

17:                                               ; preds = %10
  %18 = load i32, i32* %4, align 4
  %19 = sext i32 %18 to i64
  %20 = getelementptr inbounds [300 x i8], [300 x i8]* %1, i64 0, i64 %19
  %21 = load i8, i8* %20, align 1
  %22 = sext i8 %21 to i32
  %23 = icmp ne i32 %22, 44
  br i1 %23, label %24, label %40

24:                                               ; preds = %17
  %25 = load i32, i32* %3, align 4
  %26 = sext i32 %25 to i64
  %27 = getelementptr inbounds [200 x i32], [200 x i32]* %2, i64 0, i64 %26
  %28 = load i32, i32* %27, align 4
  %29 = mul nsw i32 %28, 10
  %30 = load i32, i32* %4, align 4
  %31 = sext i32 %30 to i64
  %32 = getelementptr inbounds [300 x i8], [300 x i8]* %1, i64 0, i64 %31
  %33 = load i8, i8* %32, align 1
  %34 = sext i8 %33 to i32
  %35 = sub nsw i32 %34, 48
  %36 = add nsw i32 %29, %35
  %37 = load i32, i32* %3, align 4
  %38 = sext i32 %37 to i64
  %39 = getelementptr inbounds [200 x i32], [200 x i32]* %2, i64 0, i64 %38
  store i32 %36, i32* %39, align 4
  br label %43

40:                                               ; preds = %17
  %41 = load i32, i32* %3, align 4
  %42 = add nsw i32 %41, 1
  store i32 %42, i32* %3, align 4
  br label %43

43:                                               ; preds = %40, %24
  %44 = load i32, i32* %4, align 4
  %45 = add nsw i32 %44, 1
  store i32 %45, i32* %4, align 4
  br label %10

46:                                               ; preds = %10
  %47 = load i32, i32* %3, align 4
  %48 = icmp sle i32 %47, 0
  br i1 %48, label %49, label %51

49:                                               ; preds = %46
  %50 = call i32 (i8*, ...) @printf(i8* getelementptr inbounds ([3 x i8], [3 x i8]* @.str, i64 0, i64 0))
  br label %131

51:                                               ; preds = %46
  store i32 0, i32* %4, align 4
  br label %52

52:                                               ; preds = %94, %51
  %53 = load i32, i32* %4, align 4
  %54 = load i32, i32* %3, align 4
  %55 = icmp slt i32 %53, %54
  br i1 %55, label %56, label %97

56:                                               ; preds = %52
  %57 = load i32, i32* %4, align 4
  %58 = add nsw i32 %57, 1
  store i32 %58, i32* %5, align 4
  br label %59

59:                                               ; preds = %90, %56
  %60 = load i32, i32* %5, align 4
  %61 = load i32, i32* %3, align 4
  %62 = icmp sle i32 %60, %61
  br i1 %62, label %63, label %93

63:                                               ; preds = %59
  %64 = load i32, i32* %4, align 4
  %65 = sext i32 %64 to i64
  %66 = getelementptr inbounds [200 x i32], [200 x i32]* %2, i64 0, i64 %65
  %67 = load i32, i32* %66, align 4
  %68 = load i32, i32* %5, align 4
  %69 = sext i32 %68 to i64
  %70 = getelementptr inbounds [200 x i32], [200 x i32]* %2, i64 0, i64 %69
  %71 = load i32, i32* %70, align 4
  %72 = icmp slt i32 %67, %71
  br i1 %72, label %73, label %89

73:                                               ; preds = %63
  %74 = load i32, i32* %4, align 4
  %75 = sext i32 %74 to i64
  %76 = getelementptr inbounds [200 x i32], [200 x i32]* %2, i64 0, i64 %75
  %77 = load i32, i32* %76, align 4
  store i32 %77, i32* %6, align 4
  %78 = load i32, i32* %5, align 4
  %79 = sext i32 %78 to i64
  %80 = getelementptr inbounds [200 x i32], [200 x i32]* %2, i64 0, i64 %79
  %81 = load i32, i32* %80, align 4
  %82 = load i32, i32* %4, align 4
  %83 = sext i32 %82 to i64
  %84 = getelementptr inbounds [200 x i32], [200 x i32]* %2, i64 0, i64 %83
  store i32 %81, i32* %84, align 4
  %85 = load i32, i32* %6, align 4
  %86 = load i32, i32* %5, align 4
  %87 = sext i32 %86 to i64
  %88 = getelementptr inbounds [200 x i32], [200 x i32]* %2, i64 0, i64 %87
  store i32 %85, i32* %88, align 4
  br label %89

89:                                               ; preds = %73, %63
  br label %90

90:                                               ; preds = %89
  %91 = load i32, i32* %5, align 4
  %92 = add nsw i32 %91, 1
  store i32 %92, i32* %5, align 4
  br label %59

93:                                               ; preds = %59
  br label %94

94:                                               ; preds = %93
  %95 = load i32, i32* %4, align 4
  %96 = add nsw i32 %95, 1
  store i32 %96, i32* %4, align 4
  br label %52

97:                                               ; preds = %52
  store i32 0, i32* %6, align 4
  store i32 1, i32* %4, align 4
  br label %98

98:                                               ; preds = %114, %97
  %99 = load i32, i32* %4, align 4
  %100 = load i32, i32* %3, align 4
  %101 = icmp sle i32 %99, %100
  br i1 %101, label %102, label %117

102:                                              ; preds = %98
  %103 = load i32, i32* %4, align 4
  %104 = sext i32 %103 to i64
  %105 = getelementptr inbounds [200 x i32], [200 x i32]* %2, i64 0, i64 %104
  %106 = load i32, i32* %105, align 4
  %107 = getelementptr inbounds [200 x i32], [200 x i32]* %2, i64 0, i64 0
  %108 = load i32, i32* %107, align 16
  %109 = icmp eq i32 %106, %108
  br i1 %109, label %110, label %113

110:                                              ; preds = %102
  %111 = load i32, i32* %6, align 4
  %112 = add nsw i32 %111, 1
  store i32 %112, i32* %6, align 4
  br label %113

113:                                              ; preds = %110, %102
  br label %114

114:                                              ; preds = %113
  %115 = load i32, i32* %4, align 4
  %116 = add nsw i32 %115, 1
  store i32 %116, i32* %4, align 4
  br label %98

117:                                              ; preds = %98
  %118 = load i32, i32* %6, align 4
  %119 = load i32, i32* %3, align 4
  %120 = icmp eq i32 %118, %119
  br i1 %120, label %121, label %123

121:                                              ; preds = %117
  %122 = call i32 (i8*, ...) @printf(i8* getelementptr inbounds ([3 x i8], [3 x i8]* @.str, i64 0, i64 0))
  br label %130

123:                                              ; preds = %117
  %124 = load i32, i32* %6, align 4
  %125 = add nsw i32 %124, 1
  %126 = sext i32 %125 to i64
  %127 = getelementptr inbounds [200 x i32], [200 x i32]* %2, i64 0, i64 %126
  %128 = load i32, i32* %127, align 4
  %129 = call i32 (i8*, ...) @printf(i8* getelementptr inbounds ([3 x i8], [3 x i8]* @.str.1, i64 0, i64 0), i32 %128)
  br label %130

130:                                              ; preds = %123, %121
  br label %131

131:                                              ; preds = %130, %49
  ret void
}

; Function Attrs: argmemonly nounwind willreturn
declare void @llvm.memset.p0i8.i64(i8* nocapture writeonly, i8, i64, i1 immarg) #1

declare dso_local i32 @gets(...) #2

declare dso_local i32 @printf(i8*, ...) #2


!llvm.module.flags = !{!0}
!llvm.ident = !{!1}

!0 = !{i32 1, !"wchar_size", i32 4}
!1 = !{!"clang version 10.0.0-4ubuntu1 "}
